target datalayout = "e-m:e-p270:32:32-p271:32:32-p272:64:64-i64:64-i128:128-f80:128-n8:16:32:64-S128"
target triple = "x86_64-pc-linux-gnu"

%struct.Ssw_RarMan_t_ = type { ptr, i32, i32, ptr, ptr, ptr, ptr, ptr, ptr, ptr, ptr, ptr, ptr, i32, i32, ptr }
%struct.Aig_Man_t_ = type { ptr, ptr, ptr, ptr, ptr, ptr, ptr, %struct.Aig_Obj_t_, i32, i32, i32, i32, i32, i32, [7 x i32], i32, ptr, i32, ptr, i32, ptr, i32, i32, i32, ptr, i32, i32, i32, i32, i32, ptr, ptr, i32, ptr, ptr, i32, ptr, ptr, i32, i32, i32, ptr, ptr, ptr, ptr, ptr, ptr, ptr, ptr, ptr, ptr, ptr, ptr, ptr, ptr, i32, ptr, ptr, ptr, ptr, i32, i64, i64, i64, ptr, ptr }
%struct.Aig_Obj_t_ = type { %union.anon, ptr, ptr, i64, i32, i32, %union.anon.0 }
%union.anon = type { ptr }
%union.anon.0 = type { ptr }
%struct.Vec_Ptr_t_ = type { i32, i32, ptr }
%struct.Vec_Int_t_ = type { i32, i32, ptr }

; Function Attrs: inlinehint nounwind uwtable
define internal void @Vec_PtrFreeP(ptr noundef %0) #4 {
  %2 = alloca ptr, align 8
  store ptr %0, ptr %2, align 8, !tbaa !202
  %3 = load ptr, ptr %2, align 8, !tbaa !202
  %4 = load ptr, ptr %3, align 8, !tbaa !55
  %5 = icmp eq ptr %4, null
  br i1 %5, label %6, label %7

6:                                                ; preds = %1
  br label %32

7:                                                ; preds = %1
  %8 = load ptr, ptr %2, align 8, !tbaa !202
  %9 = load ptr, ptr %8, align 8, !tbaa !55
  %10 = getelementptr inbounds nuw %struct.Vec_Ptr_t_, ptr %9, i32 0, i32 2
  %11 = load ptr, ptr %10, align 8, !tbaa !56
  %12 = icmp ne ptr %11, null
  br i1 %12, label %13, label %21

13:                                               ; preds = %7
  %14 = load ptr, ptr %2, align 8, !tbaa !202
  %15 = load ptr, ptr %14, align 8, !tbaa !55
  %16 = getelementptr inbounds nuw %struct.Vec_Ptr_t_, ptr %15, i32 0, i32 2
  %17 = load ptr, ptr %16, align 8, !tbaa !56
  call void @free(ptr noundef %17) #11
  %18 = load ptr, ptr %2, align 8, !tbaa !202
  %19 = load ptr, ptr %18, align 8, !tbaa !55
  %20 = getelementptr inbounds nuw %struct.Vec_Ptr_t_, ptr %19, i32 0, i32 2
  store ptr null, ptr %20, align 8, !tbaa !56
  br label %22

21:                                               ; preds = %7
  br label %22

22:                                               ; preds = %21, %13
  %23 = load ptr, ptr %2, align 8, !tbaa !202
  %24 = load ptr, ptr %23, align 8, !tbaa !55
  %25 = icmp ne ptr %24, null
  br i1 %25, label %26, label %30

26:                                               ; preds = %22
  %27 = load ptr, ptr %2, align 8, !tbaa !202
  %28 = load ptr, ptr %27, align 8, !tbaa !55
  call void @free(ptr noundef %28) #11
  %29 = load ptr, ptr %2, align 8, !tbaa !202
  store ptr null, ptr %29, align 8, !tbaa !55
  br label %31

30:                                               ; preds = %22
  br label %31

31:                                               ; preds = %30, %26
  br label %32

32:                                               ; preds = %31, %6
  ret void
}

; Function Attrs: inlinehint nounwind uwtable
define internal void @Vec_IntFreeP(ptr noundef %0) #4 {
  %2 = alloca ptr, align 8
  store ptr %0, ptr %2, align 8, !tbaa !200
  %3 = load ptr, ptr %2, align 8, !tbaa !200
  %4 = load ptr, ptr %3, align 8, !tbaa !61
  %5 = icmp eq ptr %4, null
  br i1 %5, label %6, label %7

6:                                                ; preds = %1
  br label %32

7:                                                ; preds = %1
  %8 = load ptr, ptr %2, align 8, !tbaa !200
  %9 = load ptr, ptr %8, align 8, !tbaa !61
  %10 = getelementptr inbounds nuw %struct.Vec_Int_t_, ptr %9, i32 0, i32 2
  %11 = load ptr, ptr %10, align 8, !tbaa !72
  %12 = icmp ne ptr %11, null
  br i1 %12, label %13, label %21

13:                                               ; preds = %7
  %14 = load ptr, ptr %2, align 8, !tbaa !200
  %15 = load ptr, ptr %14, align 8, !tbaa !61
  %16 = getelementptr inbounds nuw %struct.Vec_Int_t_, ptr %15, i32 0, i32 2
  %17 = load ptr, ptr %16, align 8, !tbaa !72
  call void @free(ptr noundef %17) #11
  %18 = load ptr, ptr %2, align 8, !tbaa !200
  %19 = load ptr, ptr %18, align 8, !tbaa !61
  %20 = getelementptr inbounds nuw %struct.Vec_Int_t_, ptr %19, i32 0, i32 2
  store ptr null, ptr %20, align 8, !tbaa !72
  br label %22

21:                                               ; preds = %7
  br label %22

22:                                               ; preds = %21, %13
  %23 = load ptr, ptr %2, align 8, !tbaa !200
  %24 = load ptr, ptr %23, align 8, !tbaa !61
  %25 = icmp ne ptr %24, null
  br i1 %25, label %26, label %30

26:                                               ; preds = %22
  %27 = load ptr, ptr %2, align 8, !tbaa !200
  %28 = load ptr, ptr %27, align 8, !tbaa !61
  call void @free(ptr noundef %28) #11
  %29 = load ptr, ptr %2, align 8, !tbaa !200
  store ptr null, ptr %29, align 8, !tbaa !61
  br label %31

30:                                               ; preds = %22
  br label %31

31:                                               ; preds = %30, %26
  br label %32

32:                                               ; preds = %31, %6
  ret void
}

; Function Attrs: nounwind uwtable
define internal void @Ssw_RarManStop(ptr noundef %0) #0 {
  %2 = alloca ptr, align 8
  store ptr %0, ptr %2, align 8, !tbaa !27
  %3 = load ptr, ptr %2, align 8, !tbaa !27
  %4 = getelementptr inbounds nuw %struct.Ssw_RarMan_t_, ptr %3, i32 0, i32 15
  %5 = load ptr, ptr %4, align 8, !tbaa !111
  %6 = icmp ne ptr %5, null
  br i1 %6, label %7, label %17

7:                                                ; preds = %1
  %8 = load ptr, ptr %2, align 8, !tbaa !27
  %9 = getelementptr inbounds nuw %struct.Ssw_RarMan_t_, ptr %8, i32 0, i32 15
  %10 = load ptr, ptr %9, align 8, !tbaa !111
  %11 = load ptr, ptr %2, align 8, !tbaa !27
  %12 = getelementptr inbounds nuw %struct.Ssw_RarMan_t_, ptr %11, i32 0, i32 3
  %13 = load ptr, ptr %12, align 8, !tbaa !29
  %14 = getelementptr inbounds nuw %struct.Aig_Man_t_, ptr %13, i32 0, i32 52
  store ptr %10, ptr %14, align 8, !tbaa !157
  %15 = load ptr, ptr %2, align 8, !tbaa !27
  %16 = getelementptr inbounds nuw %struct.Ssw_RarMan_t_, ptr %15, i32 0, i32 15
  store ptr null, ptr %16, align 8, !tbaa !111
  br label %17

17:                                               ; preds = %7, %1
  %18 = load ptr, ptr %2, align 8, !tbaa !27
  %19 = getelementptr inbounds nuw %struct.Ssw_RarMan_t_, ptr %18, i32 0, i32 4
  %20 = load ptr, ptr %19, align 8, !tbaa !127
  %21 = icmp ne ptr %20, null
  br i1 %21, label %22, label %26

22:                                               ; preds = %17
  %23 = load ptr, ptr %2, align 8, !tbaa !27
  %24 = getelementptr inbounds nuw %struct.Ssw_RarMan_t_, ptr %23, i32 0, i32 4
  %25 = load ptr, ptr %24, align 8, !tbaa !127
  call void @Ssw_ClassesStop(ptr noundef %25)
  br label %26

26:                                               ; preds = %22, %17
  %27 = load ptr, ptr %2, align 8, !tbaa !27
  %28 = getelementptr inbounds nuw %struct.Ssw_RarMan_t_, ptr %27, i32 0, i32 5
  call void @Vec_IntFreeP(ptr noundef %28)
  %29 = load ptr, ptr %2, align 8, !tbaa !27
  %30 = getelementptr inbounds nuw %struct.Ssw_RarMan_t_, ptr %29, i32 0, i32 12
  call void @Vec_IntFreeP(ptr noundef %30)
  %31 = load ptr, ptr %2, align 8, !tbaa !27
  %32 = getelementptr inbounds nuw %struct.Ssw_RarMan_t_, ptr %31, i32 0, i32 8
  call void @Vec_PtrFreeP(ptr noundef %32)
  %33 = load ptr, ptr %2, align 8, !tbaa !27
  %34 = getelementptr inbounds nuw %struct.Ssw_RarMan_t_, ptr %33, i32 0, i32 9
  call void @Vec_PtrFreeP(ptr noundef %34)
  %35 = load ptr, ptr %2, align 8, !tbaa !27
  %36 = getelementptr inbounds nuw %struct.Ssw_RarMan_t_, ptr %35, i32 0, i32 6
  %37 = load ptr, ptr %36, align 8, !tbaa !59
  %38 = icmp ne ptr %37, null
  br i1 %38, label %39, label %45

39:                                               ; preds = %26
  %40 = load ptr, ptr %2, align 8, !tbaa !27
  %41 = getelementptr inbounds nuw %struct.Ssw_RarMan_t_, ptr %40, i32 0, i32 6
  %42 = load ptr, ptr %41, align 8, !tbaa !59
  call void @free(ptr noundef %42) #11
  %43 = load ptr, ptr %2, align 8, !tbaa !27
  %44 = getelementptr inbounds nuw %struct.Ssw_RarMan_t_, ptr %43, i32 0, i32 6
  store ptr null, ptr %44, align 8, !tbaa !59
  br label %46

45:                                               ; preds = %26
  br label %46

46:                                               ; preds = %45, %39
  %47 = load ptr, ptr %2, align 8, !tbaa !27
  %48 = getelementptr inbounds nuw %struct.Ssw_RarMan_t_, ptr %47, i32 0, i32 7
  %49 = load ptr, ptr %48, align 8, !tbaa !95
  %50 = icmp ne ptr %49, null
  br i1 %50, label %51, label %57

51:                                               ; preds = %46
  %52 = load ptr, ptr %2, align 8, !tbaa !27
  %53 = getelementptr inbounds nuw %struct.Ssw_RarMan_t_, ptr %52, i32 0, i32 7
  %54 = load ptr, ptr %53, align 8, !tbaa !95
  call void @free(ptr noundef %54) #11
  %55 = load ptr, ptr %2, align 8, !tbaa !27
  %56 = getelementptr inbounds nuw %struct.Ssw_RarMan_t_, ptr %55, i32 0, i32 7
  store ptr null, ptr %56, align 8, !tbaa !95
  br label %58

57:                                               ; preds = %46
  br label %58

58:                                               ; preds = %57, %51
  %59 = load ptr, ptr %2, align 8, !tbaa !27
  %60 = getelementptr inbounds nuw %struct.Ssw_RarMan_t_, ptr %59, i32 0, i32 11
  %61 = load ptr, ptr %60, align 8, !tbaa !144
  %62 = icmp ne ptr %61, null
  br i1 %62, label %63, label %69

63:                                               ; preds = %58
  %64 = load ptr, ptr %2, align 8, !tbaa !27
  %65 = getelementptr inbounds nuw %struct.Ssw_RarMan_t_, ptr %64, i32 0, i32 11
  %66 = load ptr, ptr %65, align 8, !tbaa !144
  call void @free(ptr noundef %66) #11
  %67 = load ptr, ptr %2, align 8, !tbaa !27
  %68 = getelementptr inbounds nuw %struct.Ssw_RarMan_t_, ptr %67, i32 0, i32 11
  store ptr null, ptr %68, align 8, !tbaa !144
  br label %70

69:                                               ; preds = %58
  br label %70

70:                                               ; preds = %69, %63
  %71 = load ptr, ptr %2, align 8, !tbaa !27
  %72 = getelementptr inbounds nuw %struct.Ssw_RarMan_t_, ptr %71, i32 0, i32 10
  %73 = load ptr, ptr %72, align 8, !tbaa !143
  %74 = icmp ne ptr %73, null
  br i1 %74, label %75, label %81

75:                                               ; preds = %70
  %76 = load ptr, ptr %2, align 8, !tbaa !27
  %77 = getelementptr inbounds nuw %struct.Ssw_RarMan_t_, ptr %76, i32 0, i32 10
  %78 = load ptr, ptr %77, align 8, !tbaa !143
  call void @free(ptr noundef %78) #11
  %79 = load ptr, ptr %2, align 8, !tbaa !27
  %80 = getelementptr inbounds nuw %struct.Ssw_RarMan_t_, ptr %79, i32 0, i32 10
  store ptr null, ptr %80, align 8, !tbaa !143
  br label %82

81:                                               ; preds = %70
  br label %82

82:                                               ; preds = %81, %75
  %83 = load ptr, ptr %2, align 8, !tbaa !27
  %84 = icmp ne ptr %83, null
  br i1 %84, label %85, label %87

85:                                               ; preds = %82
  %86 = load ptr, ptr %2, align 8, !tbaa !27
  call void @free(ptr noundef %86) #11
  store ptr null, ptr %2, align 8, !tbaa !27
  br label %88

87:                                               ; preds = %82
  br label %88

88:                                               ; preds = %87, %85
  ret void
}