; Function Attrs: nounwind uwtable
define internal fastcc void @Ssw_RarManStop(ptr noundef captures(none) %0) unnamed_addr #2 {
  %2 = getelementptr inbounds nuw i8, ptr %0, i64 104
  %3 = load ptr, ptr %2, align 8, !tbaa !96
  %.not = icmp eq ptr %3, null
  br i1 %.not, label %8, label %4

4:                                                ; preds = %1
  %5 = getelementptr inbounds nuw i8, ptr %0, i64 16
  %6 = load ptr, ptr %5, align 8, !tbaa !14
  %7 = getelementptr inbounds nuw i8, ptr %6, i64 416
  store ptr %3, ptr %7, align 8, !tbaa !152
  store ptr null, ptr %2, align 8, !tbaa !96
  br label %8

8:                                                ; preds = %4, %1
  %9 = getelementptr inbounds nuw i8, ptr %0, i64 24
  %10 = load ptr, ptr %9, align 8, !tbaa !120
  %.not30 = icmp eq ptr %10, null
  br i1 %.not30, label %12, label %11

11:                                               ; preds = %8
  tail call void @Ssw_ClassesStop(ptr noundef nonnull %10) #20
  br label %12

12:                                               ; preds = %11, %8
  %13 = getelementptr inbounds nuw i8, ptr %0, i64 32
  %14 = load ptr, ptr %13, align 8, !tbaa !153
  %15 = icmp eq ptr %14, null
  br i1 %15, label %Vec_IntFreeP.exit, label %16

16:                                               ; preds = %12
  %17 = getelementptr inbounds nuw i8, ptr %14, i64 8
  %18 = load ptr, ptr %17, align 8, !tbaa !47
  %.not.i = icmp eq ptr %18, null
  br i1 %.not.i, label %21, label %.thread.i

.thread.i:                                        ; preds = %16
  tail call void @free(ptr noundef nonnull %18) #20
  %19 = load ptr, ptr %13, align 8, !tbaa !153
  %20 = getelementptr inbounds nuw i8, ptr %19, i64 8
  store ptr null, ptr %20, align 8, !tbaa !47
  br label %21

21:                                               ; preds = %.thread.i, %16
  %22 = phi ptr [ %19, %.thread.i ], [ %14, %16 ]
  tail call void @free(ptr noundef nonnull %22) #20
  store ptr null, ptr %13, align 8, !tbaa !153
  br label %Vec_IntFreeP.exit

Vec_IntFreeP.exit:                                ; preds = %12, %21
  %23 = getelementptr inbounds nuw i8, ptr %0, i64 88
  %24 = load ptr, ptr %23, align 8, !tbaa !153
  %25 = icmp eq ptr %24, null
  br i1 %25, label %Vec_IntFreeP.exit38, label %26

26:                                               ; preds = %Vec_IntFreeP.exit
  %27 = getelementptr inbounds nuw i8, ptr %24, i64 8
  %28 = load ptr, ptr %27, align 8, !tbaa !47
  %.not.i36 = icmp eq ptr %28, null
  br i1 %.not.i36, label %31, label %.thread.i37

.thread.i37:                                      ; preds = %26
  tail call void @free(ptr noundef nonnull %28) #20
  %29 = load ptr, ptr %23, align 8, !tbaa !153
  %30 = getelementptr inbounds nuw i8, ptr %29, i64 8
  store ptr null, ptr %30, align 8, !tbaa !47
  br label %31

31:                                               ; preds = %.thread.i37, %26
  %32 = phi ptr [ %29, %.thread.i37 ], [ %24, %26 ]
  tail call void @free(ptr noundef nonnull %32) #20
  store ptr null, ptr %23, align 8, !tbaa !153
  br label %Vec_IntFreeP.exit38

Vec_IntFreeP.exit38:                              ; preds = %Vec_IntFreeP.exit, %31
  %33 = getelementptr inbounds nuw i8, ptr %0, i64 56
  %34 = load ptr, ptr %33, align 8, !tbaa !154
  %35 = icmp eq ptr %34, null
  br i1 %35, label %Vec_PtrFreeP.exit, label %36

36:                                               ; preds = %Vec_IntFreeP.exit38
  %37 = getelementptr inbounds nuw i8, ptr %34, i64 8
  %38 = load ptr, ptr %37, align 8, !tbaa !36
  %.not.i39 = icmp eq ptr %38, null
  br i1 %.not.i39, label %41, label %.thread.i40

.thread.i40:                                      ; preds = %36
  tail call void @free(ptr noundef nonnull %38) #20
  %39 = load ptr, ptr %33, align 8, !tbaa !154
  %40 = getelementptr inbounds nuw i8, ptr %39, i64 8
  store ptr null, ptr %40, align 8, !tbaa !36
  br label %41

41:                                               ; preds = %.thread.i40, %36
  %42 = phi ptr [ %39, %.thread.i40 ], [ %34, %36 ]
  tail call void @free(ptr noundef nonnull %42) #20
  store ptr null, ptr %33, align 8, !tbaa !154
  br label %Vec_PtrFreeP.exit

Vec_PtrFreeP.exit:                                ; preds = %Vec_IntFreeP.exit38, %41
  %43 = getelementptr inbounds nuw i8, ptr %0, i64 64
  %44 = load ptr, ptr %43, align 8, !tbaa !154
  %45 = icmp eq ptr %44, null
  br i1 %45, label %Vec_PtrFreeP.exit43, label %46

46:                                               ; preds = %Vec_PtrFreeP.exit
  %47 = getelementptr inbounds nuw i8, ptr %44, i64 8
  %48 = load ptr, ptr %47, align 8, !tbaa !36
  %.not.i41 = icmp eq ptr %48, null
  br i1 %.not.i41, label %51, label %.thread.i42

.thread.i42:                                      ; preds = %46
  tail call void @free(ptr noundef nonnull %48) #20
  %49 = load ptr, ptr %43, align 8, !tbaa !154
  %50 = getelementptr inbounds nuw i8, ptr %49, i64 8
  store ptr null, ptr %50, align 8, !tbaa !36
  br label %51

51:                                               ; preds = %.thread.i42, %46
  %52 = phi ptr [ %49, %.thread.i42 ], [ %44, %46 ]
  tail call void @free(ptr noundef nonnull %52) #20
  store ptr null, ptr %43, align 8, !tbaa !154
  br label %Vec_PtrFreeP.exit43

Vec_PtrFreeP.exit43:                              ; preds = %Vec_PtrFreeP.exit, %51
  %53 = getelementptr inbounds nuw i8, ptr %0, i64 40
  %54 = load ptr, ptr %53, align 8, !tbaa !34
  %.not31 = icmp eq ptr %54, null
  br i1 %.not31, label %56, label %55

55:                                               ; preds = %Vec_PtrFreeP.exit43
  tail call void @free(ptr noundef nonnull %54) #20
  store ptr null, ptr %53, align 8, !tbaa !34
  br label %56

56:                                               ; preds = %Vec_PtrFreeP.exit43, %55
  %57 = getelementptr inbounds nuw i8, ptr %0, i64 48
  %58 = load ptr, ptr %57, align 8, !tbaa !75
  %.not32 = icmp eq ptr %58, null
  br i1 %.not32, label %60, label %59

59:                                               ; preds = %56
  tail call void @free(ptr noundef nonnull %58) #20
  store ptr null, ptr %57, align 8, !tbaa !75
  br label %60

60:                                               ; preds = %56, %59
  %61 = getelementptr inbounds nuw i8, ptr %0, i64 80
  %62 = load ptr, ptr %61, align 8, !tbaa !141
  %.not33 = icmp eq ptr %62, null
  br i1 %.not33, label %64, label %63

63:                                               ; preds = %60
  tail call void @free(ptr noundef nonnull %62) #20
  store ptr null, ptr %61, align 8, !tbaa !141
  br label %64

64:                                               ; preds = %60, %63
  %65 = getelementptr inbounds nuw i8, ptr %0, i64 72
  %66 = load ptr, ptr %65, align 8, !tbaa !140
  %.not34 = icmp eq ptr %66, null
  br i1 %.not34, label %68, label %67

67:                                               ; preds = %64
  tail call void @free(ptr noundef nonnull %66) #20
  br label %68

68:                                               ; preds = %64, %67
  tail call void @free(ptr noundef nonnull %0) #20
  ret void
}